target datalayout = "e-m:e-p270:32:32-p271:32:32-p272:64:64-i64:64-i128:128-f80:128-n8:16:32:64-S128"
target triple = "x86_64-pc-linux-gnu"

; Function Attrs: nounwind uwtable
define dso_local i32 @ACLCheckPasswordHash(ptr noundef %0, i32 noundef %1) #0 {
  %3 = alloca i32, align 4
  %4 = alloca ptr, align 8
  %5 = alloca i32, align 4
  %6 = alloca i32, align 4
  %7 = alloca i32, align 4
  %8 = alloca i8, align 1
  store ptr %0, ptr %4, align 8, !tbaa !5
  store i32 %1, ptr %5, align 4, !tbaa !17
  %9 = load i32, ptr %5, align 4, !tbaa !17
  %10 = icmp ne i32 %9, 64
  br i1 %10, label %11, label %12

11:                                               ; preds = %2
  store i32 -1, ptr %3, align 4
  br label %49

12:                                               ; preds = %2
  call void @llvm.lifetime.start.p0(i64 4, ptr %6) #14
  store i32 0, ptr %6, align 4, !tbaa !17
  br label %13

13:                                               ; preds = %43, %12
  %14 = load i32, ptr %6, align 4, !tbaa !17
  %15 = icmp slt i32 %14, 64
  br i1 %15, label %17, label %16

16:                                               ; preds = %13
  store i32 2, ptr %7, align 4
  br label %46

17:                                               ; preds = %13
  call void @llvm.lifetime.start.p0(i64 1, ptr %8) #14
  %18 = load ptr, ptr %4, align 8, !tbaa !5
  %19 = load i32, ptr %6, align 4, !tbaa !17
  %20 = sext i32 %19 to i64
  %21 = getelementptr inbounds i8, ptr %18, i64 %20
  %22 = load i8, ptr %21, align 1, !tbaa !22
  store i8 %22, ptr %8, align 1, !tbaa !22
  %23 = load i8, ptr %8, align 1, !tbaa !22
  %24 = sext i8 %23 to i32
  %25 = icmp slt i32 %24, 97
  br i1 %25, label %30, label %26

26:                                               ; preds = %17
  %27 = load i8, ptr %8, align 1, !tbaa !22
  %28 = sext i8 %27 to i32
  %29 = icmp sgt i32 %28, 102
  br i1 %29, label %30, label %39

30:                                               ; preds = %26, %17
  %31 = load i8, ptr %8, align 1, !tbaa !22
  %32 = sext i8 %31 to i32
  %33 = icmp slt i32 %32, 48
  br i1 %33, label %38, label %34

34:                                               ; preds = %30
  %35 = load i8, ptr %8, align 1, !tbaa !22
  %36 = sext i8 %35 to i32
  %37 = icmp sgt i32 %36, 57
  br i1 %37, label %38, label %39

38:                                               ; preds = %34, %30
  store i32 -1, ptr %3, align 4
  store i32 1, ptr %7, align 4
  br label %40

39:                                               ; preds = %34, %26
  store i32 0, ptr %7, align 4
  br label %40

40:                                               ; preds = %39, %38
  call void @llvm.lifetime.end.p0(i64 1, ptr %8) #14
  %41 = load i32, ptr %7, align 4
  switch i32 %41, label %46 [
    i32 0, label %42
  ]

42:                                               ; preds = %40
  br label %43

43:                                               ; preds = %42
  %44 = load i32, ptr %6, align 4, !tbaa !17
  %45 = add nsw i32 %44, 1
  store i32 %45, ptr %6, align 4, !tbaa !17
  br label %13, !llvm.loop !25

46:                                               ; preds = %40, %16
  call void @llvm.lifetime.end.p0(i64 4, ptr %6) #14
  %47 = load i32, ptr %7, align 4
  switch i32 %47, label %51 [
    i32 2, label %48
    i32 1, label %49
  ]

48:                                               ; preds = %46
  store i32 0, ptr %3, align 4
  br label %49

49:                                               ; preds = %48, %46, %11
  %50 = load i32, ptr %3, align 4
  ret i32 %50

51:                                               ; preds = %46
  unreachable
}