; Function Attrs: nofree norecurse nosync nounwind memory(argmem: read) uwtable
define dso_local range(i32 -1, 1) i32 @ACLCheckPasswordHash(ptr noundef readonly captures(none) %0, i32 noundef %1) local_unnamed_addr #5 {
  %.not = icmp eq i32 %1, 64
  br i1 %.not, label %.critedge, label %8

.critedge:                                        ; preds = %2, %.critedge
  %indvars.iv = phi i64 [ %indvars.iv.next, %.critedge ], [ 0, %2 ]
  %3 = getelementptr inbounds nuw i8, ptr %0, i64 %indvars.iv
  %4 = load i8, ptr %3, align 1, !tbaa !19
  %5 = add i8 %4, -103
  %or.cond = icmp ult i8 %5, -6
  %6 = add i8 %4, -58
  %or.cond5 = icmp ult i8 %6, -10
  %or.cond19 = and i1 %or.cond, %or.cond5
  %indvars.iv.next = add nuw nsw i64 %indvars.iv, 1
  %exitcond.not = icmp eq i64 %indvars.iv.next, 64
  %or.cond22 = select i1 %or.cond19, i1 true, i1 %exitcond.not
  br i1 %or.cond22, label %7, label %.critedge, !llvm.loop !22

7:                                                ; preds = %.critedge
  %spec.select = sext i1 %or.cond19 to i32
  br label %8

8:                                                ; preds = %7, %2
  %.0 = phi i32 [ -1, %2 ], [ %spec.select, %7 ]
  ret i32 %.0
}